target datalayout = "e-m:e-p270:32:32-p271:32:32-p272:64:64-i64:64-i128:128-f80:128-n8:16:32:64-S128"
target triple = "x86_64-pc-linux-gnu"

%struct.Tuplestorestate = type { i32, i32, i8, i8, i8, i8, i64, i64, i64, i64, ptr, ptr, ptr, ptr, ptr, ptr, ptr, i32, i32, i32, i8, ptr, i32, i32, i32, i32, i64 }
%struct.TSReadPointer = type { i32, i8, i32, i32, i64 }

; Function Attrs: nounwind uwtable
define dso_local zeroext i1 @tuplestore_ateof(ptr noundef %0) #0 {
  %2 = alloca ptr, align 8
  store ptr %0, ptr %2, align 8
  %3 = load ptr, ptr %2, align 8
  %4 = getelementptr inbounds nuw %struct.Tuplestorestate, ptr %3, i32 0, i32 21
  %5 = load ptr, ptr %4, align 8
  %6 = load ptr, ptr %2, align 8
  %7 = getelementptr inbounds nuw %struct.Tuplestorestate, ptr %6, i32 0, i32 22
  %8 = load i32, ptr %7, align 8
  %9 = sext i32 %8 to i64
  %10 = getelementptr inbounds %struct.TSReadPointer, ptr %5, i64 %9
  %11 = getelementptr inbounds nuw %struct.TSReadPointer, ptr %10, i32 0, i32 1
  %12 = load i8, ptr %11, align 4, !range !4, !noundef !5
  %13 = trunc i8 %12 to i1
  ret i1 %13
}